target datalayout = "e-m:e-p270:32:32-p271:32:32-p272:64:64-i64:64-i128:128-f80:128-n8:16:32:64-S128"
target triple = "x86_64-pc-linux-gnu"

%struct.lua_State = type { i8, i8, i8, i8, i8, i8, i8, ptr, ptr, ptr, ptr, ptr, ptr, ptr, ptr, i32, i32, i16, i16, i32, ptr, ptr, ptr, ptr, ptr }
%struct.global_State = type { %struct.stringtable, ptr, ptr, i8, i8, ptr, ptr, ptr, i64, i64, i32, i32, i32, [40 x ptr], [40 x ptr], ptr, ptr, ptr, [256 x i64], ptr, %struct.UpVal, [11 x ptr], [11 x ptr], [21 x ptr], %struct.lua_TValue, %struct.lua_TValue, i32, ptr, i64, [4 x i64], %struct.lua_Callbacks, %struct.lua_ExecutionCallbacks, [128 x ptr], [128 x ptr], [128 x ptr], %struct.GCStats }
%struct.stringtable = type { ptr, i32, i32 }
%struct.UpVal = type { i8, i8, i8, i8, ptr, %union.anon }
%union.anon = type { %struct.anon }
%struct.anon = type { ptr, ptr, ptr }
%struct.lua_TValue = type { %union.Value, [1 x i32], i32 }
%union.Value = type { ptr }
%struct.lua_Callbacks = type { ptr, ptr, ptr, ptr, ptr, ptr, ptr, ptr, ptr }
%struct.lua_ExecutionCallbacks = type { ptr, ptr, ptr, ptr, ptr, ptr, ptr }
%struct.GCStats = type { [32 x i32], i32, i32, i64, i64, i64, double, double, double }

; Function Attrs: mustprogress uwtable
define internal void @_ZL9freestackP9lua_StateS0_(ptr noundef %0, ptr noundef %1) #0 {
  %3 = alloca ptr, align 8
  %4 = alloca ptr, align 8
  store ptr %0, ptr %3, align 8
  store ptr %1, ptr %4, align 8
  %5 = load ptr, ptr %3, align 8
  %6 = load ptr, ptr %4, align 8
  %7 = getelementptr inbounds %struct.lua_State, ptr %6, i32 0, i32 14
  %8 = load ptr, ptr %7, align 8
  %9 = load ptr, ptr %4, align 8
  %10 = getelementptr inbounds %struct.lua_State, ptr %9, i32 0, i32 16
  %11 = load i32, ptr %10, align 4
  %12 = sext i32 %11 to i64
  %13 = mul i64 %12, 40
  %14 = load ptr, ptr %4, align 8
  %15 = getelementptr inbounds %struct.lua_State, ptr %14, i32 0, i32 2
  %16 = load i8, ptr %15, align 2
  call void @_Z10luaM_free_P9lua_StatePvmh(ptr noundef %5, ptr noundef %8, i64 noundef %13, i8 noundef zeroext %16)
  %17 = load ptr, ptr %3, align 8
  %18 = load ptr, ptr %4, align 8
  %19 = getelementptr inbounds %struct.lua_State, ptr %18, i32 0, i32 12
  %20 = load ptr, ptr %19, align 8
  %21 = load ptr, ptr %4, align 8
  %22 = getelementptr inbounds %struct.lua_State, ptr %21, i32 0, i32 15
  %23 = load i32, ptr %22, align 8
  %24 = sext i32 %23 to i64
  %25 = mul i64 %24, 16
  %26 = load ptr, ptr %4, align 8
  %27 = getelementptr inbounds %struct.lua_State, ptr %26, i32 0, i32 2
  %28 = load i8, ptr %27, align 2
  call void @_Z10luaM_free_P9lua_StatePvmh(ptr noundef %17, ptr noundef %20, i64 noundef %25, i8 noundef zeroext %28)
  ret void
}

; Function Attrs: mustprogress uwtable
define internal void @_ZL11close_stateP9lua_State(ptr noundef %0) #0 {
  %2 = alloca ptr, align 8
  %3 = alloca ptr, align 8
  %4 = alloca i32, align 4
  %5 = alloca i32, align 4
  store ptr %0, ptr %2, align 8
  %6 = load ptr, ptr %2, align 8
  %7 = getelementptr inbounds %struct.lua_State, ptr %6, i32 0, i32 9
  %8 = load ptr, ptr %7, align 8
  store ptr %8, ptr %3, align 8
  %9 = load ptr, ptr %2, align 8
  %10 = load ptr, ptr %2, align 8
  %11 = getelementptr inbounds %struct.lua_State, ptr %10, i32 0, i32 12
  %12 = load ptr, ptr %11, align 8
  call void @_Z10luaF_closeP9lua_StateP10lua_TValue(ptr noundef %9, ptr noundef %12)
  %13 = load ptr, ptr %2, align 8
  call void @_Z12luaC_freeallP9lua_State(ptr noundef %13)
  %14 = load ptr, ptr %2, align 8
  %15 = load ptr, ptr %2, align 8
  %16 = getelementptr inbounds %struct.lua_State, ptr %15, i32 0, i32 9
  %17 = load ptr, ptr %16, align 8
  %18 = getelementptr inbounds %struct.global_State, ptr %17, i32 0, i32 0
  %19 = getelementptr inbounds %struct.stringtable, ptr %18, i32 0, i32 0
  %20 = load ptr, ptr %19, align 8
  %21 = load ptr, ptr %2, align 8
  %22 = getelementptr inbounds %struct.lua_State, ptr %21, i32 0, i32 9
  %23 = load ptr, ptr %22, align 8
  %24 = getelementptr inbounds %struct.global_State, ptr %23, i32 0, i32 0
  %25 = getelementptr inbounds %struct.stringtable, ptr %24, i32 0, i32 2
  %26 = load i32, ptr %25, align 4
  %27 = sext i32 %26 to i64
  %28 = mul i64 %27, 8
  call void @_Z10luaM_free_P9lua_StatePvmh(ptr noundef %14, ptr noundef %20, i64 noundef %28, i8 noundef zeroext 0)
  %29 = load ptr, ptr %2, align 8
  %30 = load ptr, ptr %2, align 8
  call void @_ZL9freestackP9lua_StateS0_(ptr noundef %29, ptr noundef %30)
  store i32 0, ptr %4, align 4
  br label %31

31:                                               ; preds = %35, %1
  %32 = load i32, ptr %4, align 4
  %33 = icmp slt i32 %32, 40
  br i1 %33, label %34, label %38

34:                                               ; preds = %31
  br label %35

35:                                               ; preds = %34
  %36 = load i32, ptr %4, align 4
  %37 = add nsw i32 %36, 1
  store i32 %37, ptr %4, align 4
  br label %31, !llvm.loop !13

38:                                               ; preds = %31
  store i32 1, ptr %5, align 4
  br label %39

39:                                               ; preds = %43, %38
  %40 = load i32, ptr %5, align 4
  %41 = icmp slt i32 %40, 256
  br i1 %41, label %42, label %46

42:                                               ; preds = %39
  br label %43

43:                                               ; preds = %42
  %44 = load i32, ptr %5, align 4
  %45 = add nsw i32 %44, 1
  store i32 %45, ptr %5, align 4
  br label %39, !llvm.loop !14

46:                                               ; preds = %39
  %47 = load ptr, ptr %2, align 8
  %48 = getelementptr inbounds %struct.lua_State, ptr %47, i32 0, i32 9
  %49 = load ptr, ptr %48, align 8
  %50 = getelementptr inbounds %struct.global_State, ptr %49, i32 0, i32 31
  %51 = getelementptr inbounds %struct.lua_ExecutionCallbacks, ptr %50, i32 0, i32 1
  %52 = load ptr, ptr %51, align 8
  %53 = icmp ne ptr %52, null
  br i1 %53, label %54, label %62

54:                                               ; preds = %46
  %55 = load ptr, ptr %2, align 8
  %56 = getelementptr inbounds %struct.lua_State, ptr %55, i32 0, i32 9
  %57 = load ptr, ptr %56, align 8
  %58 = getelementptr inbounds %struct.global_State, ptr %57, i32 0, i32 31
  %59 = getelementptr inbounds %struct.lua_ExecutionCallbacks, ptr %58, i32 0, i32 1
  %60 = load ptr, ptr %59, align 8
  %61 = load ptr, ptr %2, align 8
  call void %60(ptr noundef %61)
  br label %62

62:                                               ; preds = %54, %46
  %63 = load ptr, ptr %3, align 8
  %64 = getelementptr inbounds %struct.global_State, ptr %63, i32 0, i32 1
  %65 = load ptr, ptr %64, align 8
  %66 = load ptr, ptr %3, align 8
  %67 = getelementptr inbounds %struct.global_State, ptr %66, i32 0, i32 2
  %68 = load ptr, ptr %67, align 8
  %69 = load ptr, ptr %2, align 8
  %70 = call noundef ptr %65(ptr noundef %68, ptr noundef %69, i64 noundef 6800, i64 noundef 0)
  ret void
}