; Function Attrs: mustprogress uwtable
define internal fastcc void @_ZL11close_stateP9lua_State(ptr noundef %0) unnamed_addr #0 {
.preheader.preheader:
  %1 = getelementptr inbounds nuw i8, ptr %0, i64 24
  %2 = load ptr, ptr %1, align 8
  %3 = getelementptr inbounds nuw i8, ptr %0, i64 48
  %4 = load ptr, ptr %3, align 8
  tail call void @_Z10luaF_closeP9lua_StateP10lua_TValue(ptr noundef %0, ptr noundef %4)
  tail call void @_Z12luaC_freeallP9lua_State(ptr noundef %0)
  %5 = load ptr, ptr %1, align 8
  %6 = load ptr, ptr %5, align 8
  %7 = getelementptr inbounds nuw i8, ptr %5, i64 12
  %8 = load i32, ptr %7, align 4
  %9 = sext i32 %8 to i64
  %10 = shl nsw i64 %9, 3
  tail call void @_Z10luaM_free_P9lua_StatePvmh(ptr noundef %0, ptr noundef %6, i64 noundef %10, i8 noundef zeroext 0)
  %11 = getelementptr inbounds nuw i8, ptr %0, i64 64
  %12 = load ptr, ptr %11, align 8
  %13 = getelementptr inbounds nuw i8, ptr %0, i64 76
  %14 = load i32, ptr %13, align 4
  %15 = sext i32 %14 to i64
  %16 = mul nsw i64 %15, 40
  %17 = getelementptr inbounds nuw i8, ptr %0, i64 2
  %18 = load i8, ptr %17, align 2
  tail call void @_Z10luaM_free_P9lua_StatePvmh(ptr noundef %0, ptr noundef %12, i64 noundef %16, i8 noundef zeroext %18)
  %19 = load ptr, ptr %3, align 8
  %20 = getelementptr inbounds nuw i8, ptr %0, i64 72
  %21 = load i32, ptr %20, align 8
  %22 = sext i32 %21 to i64
  %23 = shl nsw i64 %22, 4
  %24 = load i8, ptr %17, align 2
  tail call void @_Z10luaM_free_P9lua_StatePvmh(ptr noundef %0, ptr noundef %19, i64 noundef %23, i8 noundef zeroext %24)
  %25 = load ptr, ptr %1, align 8
  %26 = getelementptr inbounds nuw i8, ptr %25, i64 3368
  %27 = load ptr, ptr %26, align 8
  %.not = icmp eq ptr %27, null
  br i1 %.not, label %29, label %28

28:                                               ; preds = %.preheader.preheader
  tail call void %27(ptr noundef nonnull %0)
  br label %29

29:                                               ; preds = %28, %.preheader.preheader
  %30 = getelementptr inbounds nuw i8, ptr %2, i64 16
  %31 = load ptr, ptr %30, align 8
  %32 = getelementptr inbounds nuw i8, ptr %2, i64 24
  %33 = load ptr, ptr %32, align 8
  %34 = tail call noundef ptr %31(ptr noundef %33, ptr noundef nonnull %0, i64 noundef 6800, i64 noundef 0)
  ret void
}